(dp0
S'METTS MARK'
p1
(dp2
S'to_messages'
p3
I807
sS'deferral_payments'
p4
S'NaN'
p5
sS'expenses'
p6
I94299
sS'poi'
p7
I00
sS'deferred_income'
p8
g5
sS'email_address'
p9
S'mark.metts@enron.com'
p10
sS'long_term_incentive'
p11
g5
sS'log_total_payments'
p12
F6.026053764329612
sS'proportion_email_from_poi'
p13
F0.04708798017348203
sS'restricted_stock_deferred'
p14
g5
sS'shared_receipt_with_poi'
p15
I702
sS'loan_advances'
p16
g5
sS'from_messages'
p17
I29
sS'other'
p18
I1740
sS'log_total_stock_value'
p19
F5.7672018914345164
sS'proportion_email_to_poi'
p20
F0.034482758620689655
sS'director_fees'
p21
g5
sS'bonus'
p22
I600000
sS'total_stock_value'
p23
I585062
sS'from_poi_to_this_person'
p24
I38
sS'from_this_person_to_poi'
p25
I1
sS'restricted_stock'
p26
I585062
sS'salary'
p27
I365788
sS'total_payments'
p28
I1061827
sS'exercised_stock_options'
p29
g5
ssS'BAXTER JOHN C'
p30
(dp31
g3
g5
sg4
I1295738
sg6
I11200
sg7
I00
sg8
I-1386055
sg9
g5
sg11
I1586055
sg12
F6.750843281853342
sg13
I0
sg14
g5
sg15
g5
sg16
g5
sg17
g5
sg18
I2660303
sg19
F7.026257729027025
sg20
I0
sg21
g5
sg22
I1200000
sg23
I10623258
sg24
g5
sg25
g5
sg26
I3942714
sg27
I267102
sg28
I5634343
sg29
I6680544
ssS'ELLIOTT STEVEN'
p32
(dp33
g3
g5
sg4
g5
sg6
I78552
sg7
I00
sg8
I-400729
sg9
S'steven.elliott@enron.com'
p34
sg11
g5
sg12
F5.325772141538619
sg13
I0
sg14
g5
sg15
g5
sg16
g5
sg17
g5
sg18
I12961
sg19
F6.824694211795185
sg20
I0
sg21
g5
sg22
I350000
sg23
I6678735
sg24
g5
sg25
g5
sg26
I1788391
sg27
I170941
sg28
I211725
sg29
I4890344
ssS'CORDES WILLIAM R'
p35
(dp36
g3
I764
sg4
g5
sg6
g5
sg7
I00
sg8
g5
sg9
S'bill.cordes@enron.com'
p37
sg11
g5
sg12
I0
sg13
F0.013089005235602094
sg14
g5
sg15
I58
sg16
g5
sg17
I12
sg18
g5
sg19
I0
sg20
F0.0
sg21
g5
sg22
g5
sg23
I1038185
sg24
I10
sg25
I0
sg26
I386335
sg27
g5
sg28
g5
sg29
I651850
ssS'HANNON KEVIN P'
p38
(dp39
g3
I1045
sg4
g5
sg6
I34039
sg7
I01
sg8
I-3117011
sg9
S'kevin.hannon@enron.com'
p40
sg11
I1617011
sg12
F5.460419705445034
sg13
F0.03062200956937799
sg14
g5
sg15
I1035
sg16
g5
sg17
I32
sg18
I11350
sg19
F6.805573234540852
sg20
F0.65625
sg21
g5
sg22
I1500000
sg23
I6391065
sg24
I32
sg25
I21
sg26
I853064
sg27
I243293
sg28
I288682
sg29
I5538001
ssS'MORDAUNT KRISTINA M'
p41
(dp42
g3
g5
sg4
g5
sg6
I35018
sg7
I00
sg8
g5
sg9
S'kristina.mordaunt@enron.com'
p43
sg11
g5
sg12
F5.798320483790287
sg13
I0
sg14
g5
sg15
g5
sg16
g5
sg17
g5
sg18
I1411
sg19
F5.319126888281838
sg20
I0
sg21
g5
sg22
I325000
sg23
I208510
sg24
g5
sg25
g5
sg26
I208510
sg27
I267093
sg28
I628522
sg29
g5
ssS'MEYER ROCKFORD G'
p44
(dp45
g3
I232
sg4
I1848227
sg6
g5
sg7
I00
sg8
g5
sg9
S'rockford.meyer@enron.com'
p46
sg11
g5
sg12
F6.2667553103868086
sg13
F0.0
sg14
g5
sg15
I22
sg16
g5
sg17
I28
sg18
g5
sg19
F5.980400194511359
sg20
F0.0
sg21
g5
sg22
g5
sg23
I955873
sg24
I0
sg25
I0
sg26
I462384
sg27
g5
sg28
I1848227
sg29
I493489
ssS'MCMAHON JEFFREY'
p47
(dp48
g3
I2355
sg4
g5
sg6
I137108
sg7
I00
sg8
g5
sg9
S'jeffrey.mcmahon@enron.com'
p49
sg11
I694862
sg12
F6.612759599106594
sg13
F0.024628450106157114
sg14
g5
sg15
I2228
sg16
g5
sg17
I48
sg18
I297353
sg19
F6.220854380641414
sg20
F0.5416666666666666
sg21
g5
sg22
I2600000
sg23
I1662855
sg24
I58
sg25
I26
sg26
I558801
sg27
I370448
sg28
I4099771
sg29
I1104054
ssS'HORTON STANLEY C'
p50
(dp51
g3
I2350
sg4
I3131860
sg6
g5
sg7
I00
sg8
g5
sg9
S'stanley.horton@enron.com'
p52
sg11
g5
sg12
F6.495802340044139
sg13
F0.01872340425531915
sg14
g5
sg15
I1074
sg16
g5
sg17
I1073
sg18
g5
sg19
F6.860736057163771
sg20
F0.013979496738117428
sg21
g5
sg22
g5
sg23
I7256648
sg24
I44
sg25
I15
sg26
I2046079
sg27
g5
sg28
I3131860
sg29
I5210569
ssS'PIPER GREGORY F'
p53
(dp54
g3
I1238
sg4
I1130036
sg6
I43057
sg7
I00
sg8
I-33333
sg9
S'greg.piper@enron.com'
p55
sg11
g5
sg12
F6.239957056087204
sg13
F0.049273021001615507
sg14
I-409554
sg15
I742
sg16
g5
sg17
I222
sg18
I778
sg19
F5.944625768345557
sg20
F0.21621621621621623
sg21
g5
sg22
I400000
sg23
I880290
sg24
I61
sg25
I48
sg26
I409554
sg27
I197091
sg28
I1737629
sg29
I880290
ssS'HUMPHREY GENE E'
p56
(dp57
g3
I128
sg4
I2964506
sg6
I4994
sg7
I00
sg8
g5
sg9
S'gene.humphrey@enron.com'
p58
sg11
g5
sg12
F6.491393073979244
sg13
F0.078125
sg14
g5
sg15
I119
sg16
g5
sg17
I17
sg18
g5
sg19
F6.35846177594945
sg20
F1.0
sg21
g5
sg22
g5
sg23
I2282768
sg24
I10
sg25
I17
sg26
g5
sg27
I130724
sg28
I3100224
sg29
I2282768
ssS'UMANOFF ADAM S'
p59
(dp60
g3
I111
sg4
g5
sg6
I53122
sg7
I00
sg8
g5
sg9
S'adam.umanoff@enron.com'
p61
sg11
g5
sg12
I0
sg13
F0.10810810810810811
sg14
g5
sg15
I41
sg16
g5
sg17
I18
sg18
g5
sg19
I0
sg20
F0.0
sg21
g5
sg22
I788750
sg23
g5
sg24
I12
sg25
I0
sg26
g5
sg27
I288589
sg28
I1130461
sg29
g5
ssS'BLACHMAN JEREMY M'
p62
(dp63
g3
I2475
sg4
g5
sg6
I84208
sg7
I00
sg8
g5
sg9
S'jeremy.blachman@enron.com'
p64
sg11
I831809
sg12
F6.304239486445571
sg13
F0.010101010101010102
sg14
g5
sg15
I2326
sg16
g5
sg17
I14
sg18
I272
sg19
F5.979709498110294
sg20
F0.14285714285714285
sg21
g5
sg22
I850000
sg23
I954354
sg24
I25
sg25
I2
sg26
I189041
sg27
I248546
sg28
I2014835
sg29
I765313
ssS'SUNDE MARTIN'
p65
(dp66
g3
I2647
sg4
g5
sg6
g5
sg7
I00
sg8
g5
sg9
S'marty.sunde@enron.com'
p67
sg11
I476451
sg12
F6.188945068152566
sg13
F0.013978088401964487
sg14
g5
sg15
I2565
sg16
g5
sg17
I38
sg18
I111122
sg19
F5.8444274682394
sg20
F0.34210526315789475
sg21
g5
sg22
I700000
sg23
I698920
sg24
I37
sg25
I13
sg26
I698920
sg27
I257486
sg28
I1545059
sg29
g5
ssS'GIBBS DANA R'
p68
(dp69
g3
I169
sg4
I504610
sg6
g5
sg7
I00
sg8
g5
sg9
S'dana.gibbs@enron.com'
p70
sg11
I461912
sg12
F5.985211743899865
sg13
F0.0
sg14
g5
sg15
I23
sg16
g5
sg17
I12
sg18
g5
sg19
F6.346015384725348
sg20
F0.0
sg21
g5
sg22
g5
sg23
I2218275
sg24
I0
sg25
I0
sg26
g5
sg27
g5
sg28
I966522
sg29
I2218275
ssS'COLWELL WESLEY'
p71
(dp72
g3
I1758
sg4
I27610
sg6
I16514
sg7
I01
sg8
I-144062
sg9
S'wes.colwell@enron.com'
p73
sg11
g5
sg12
F6.173286523485136
sg13
F0.13651877133105803
sg14
g5
sg15
I1132
sg16
g5
sg17
I40
sg18
I101740
sg19
F5.844005968539517
sg20
F0.275
sg21
g5
sg22
I1200000
sg23
I698242
sg24
I240
sg25
I11
sg26
I698242
sg27
I288542
sg28
I1490344
sg29
g5
ssS'MULLER MARK S'
p74
(dp75
g3
I136
sg4
I842924
sg6
g5
sg7
I00
sg8
I-719000
sg9
S's..muller@enron.com'
p76
sg11
I1725545
sg12
F6.5054308217373835
sg13
F0.08823529411764706
sg14
g5
sg15
I114
sg16
g5
sg17
I16
sg18
I947
sg19
F6.151323261466896
sg20
F0.0
sg21
g5
sg22
I1100000
sg23
I1416848
sg24
I12
sg25
I0
sg26
I360528
sg27
I251654
sg28
I3202070
sg29
I1056320
ssS'JACKSON CHARLENE R'
p77
(dp78
g3
I258
sg4
g5
sg6
I10181
sg7
I00
sg8
g5
sg9
S'charlene.jackson@enron.com'
p79
sg11
g5
sg12
F5.741288722827634
sg13
F0.09689922480620156
sg14
g5
sg15
I117
sg16
g5
sg17
I56
sg18
I2435
sg19
F5.860778068293514
sg20
F0.3392857142857143
sg21
g5
sg22
I250000
sg23
I725735
sg24
I25
sg25
I19
sg26
I540672
sg27
I288558
sg28
I551174
sg29
I185063
ssS'WESTFAHL RICHARD K'
p80
(dp81
g3
g5
sg4
g5
sg6
I51870
sg7
I00
sg8
I-10800
sg9
S'dick.westfahl@enron.com'
p82
sg11
I256191
sg12
F5.882031906460453
sg13
I0
sg14
g5
sg15
g5
sg16
g5
sg17
g5
sg18
I401130
sg19
F5.585381759696135
sg20
I0
sg21
g5
sg22
g5
sg23
I384930
sg24
g5
sg25
g5
sg26
I384930
sg27
I63744
sg28
I762135
sg29
g5
ssS'WALTERS GARETH W'
p83
(dp84
g3
g5
sg4
I53625
sg6
I33785
sg7
I00
sg8
g5
sg9
g5
sg11
g5
sg12
F4.94156112023607
sg13
I0
sg14
g5
sg15
g5
sg16
g5
sg17
g5
sg18
g5
sg19
F6.012975923802026
sg20
I0
sg21
g5
sg22
g5
sg23
I1030329
sg24
g5
sg25
g5
sg26
g5
sg27
g5
sg28
I87410
sg29
I1030329
ssS'WALLS JR ROBERT H'
p85
(dp86
g3
I671
sg4
g5
sg6
I50936
sg7
I00
sg8
g5
sg9
S'rob.walls@enron.com'
p87
sg11
I540751
sg12
F6.254978050155674
sg13
F0.02533532041728763
sg14
g5
sg15
I215
sg16
g5
sg17
I146
sg18
I2
sg19
F6.7707781753039535
sg20
F0.0
sg21
g5
sg22
I850000
sg23
I5898997
sg24
I17
sg25
I0
sg26
I1552453
sg27
I357091
sg28
I1798780
sg29
I4346544
ssS'KITCHEN LOUISE'
p88
(dp89
g3
I8305
sg4
g5
sg6
I5774
sg7
I00
sg8
g5
sg9
S'louise.kitchen@enron.com'
p90
sg11
g5
sg12
F6.54047225535341
sg13
F0.030222757375075255
sg14
g5
sg15
I3669
sg16
g5
sg17
I1728
sg18
I93925
sg19
F5.738100847347166
sg20
F0.11226851851851852
sg21
g5
sg22
I3100000
sg23
I547143
sg24
I251
sg25
I194
sg26
I466101
sg27
I271442
sg28
I3471141
sg29
I81042
ssS'BELFER ROBERT'
p91
(dp92
g3
g5
sg4
I-102500
sg6
g5
sg7
I00
sg8
g5
sg9
g5
sg11
g5
sg12
I0
sg13
I0
sg14
I44093
sg15
g5
sg16
g5
sg17
g5
sg18
g5
sg19
I0
sg20
I0
sg21
I3285
sg22
g5
sg23
I-44093
sg24
g5
sg25
g5
sg26
g5
sg27
g5
sg28
I102500
sg29
I3285
ssS'SHANKMAN JEFFREY A'
p93
(dp94
g3
I3221
sg4
g5
sg6
I178979
sg7
I00
sg8
g5
sg9
S'jeffrey.shankman@enron.com'
p95
sg11
I554422
sg12
F6.482688111695151
sg13
F0.029183483390251473
sg14
g5
sg15
I1730
sg16
g5
sg17
I2681
sg18
I1191
sg19
F6.316397087066673
sg20
F0.030958597538232
sg21
g5
sg22
I2000000
sg23
I2072035
sg24
I94
sg25
I83
sg26
I630137
sg27
I304110
sg28
I3038702
sg29
I1441898
ssS'BERGSIEKER RICHARD P'
p96
(dp97
g3
I383
sg4
g5
sg6
I59175
sg7
I00
sg8
I-485813
sg9
S'rick.bergsieker@enron.com'
p98
sg11
I180250
sg12
F5.791585395277573
sg13
F0.010443864229765013
sg14
g5
sg15
I233
sg16
g5
sg17
I59
sg18
I427316
sg19
F5.819049479694427
sg20
F0.0
sg21
g5
sg22
I250000
sg23
I659249
sg24
I4
sg25
I0
sg26
I659249
sg27
I187922
sg28
I618850
sg29
g5
ssS'BIBI PHILIPPE A'
p99
(dp100
g3
I1607
sg4
g5
sg6
I38559
sg7
I00
sg8
g5
sg9
S'philippe.bibi@enron.com'
p101
sg11
I369721
sg12
F6.3112436361807225
sg13
F0.01431238332296204
sg14
g5
sg15
I1336
sg16
g5
sg17
I40
sg18
I425688
sg19
F6.26571757931426
sg20
F0.2
sg21
g5
sg22
I1000000
sg23
I1843816
sg24
I23
sg25
I8
sg26
I378082
sg27
I213625
sg28
I2047593
sg29
I1465734
ssS'RIEKER PAULA H'
p102
(dp103
g3
I1328
sg4
I214678
sg6
I33271
sg7
I01
sg8
I-100000
sg9
S'paula.rieker@enron.com'
p104
sg11
g5
sg12
F6.041037207867028
sg13
F0.02635542168674699
sg14
g5
sg15
I1258
sg16
g5
sg17
I82
sg18
I1950
sg19
F6.283049400623222
sg20
F0.5853658536585366
sg21
g5
sg22
I700000
sg23
I1918887
sg24
I35
sg25
I48
sg26
I283649
sg27
I249201
sg28
I1099100
sg29
I1635238
ssS'BECK SALLY W'
p105
(dp106
g3
I7315
sg4
g5
sg6
I37172
sg7
I00
sg8
g5
sg9
S'sally.beck@enron.com'
p107
sg11
g5
sg12
F5.986354252787201
sg13
F0.01968557758031442
sg14
g5
sg15
I2639
sg16
g5
sg17
I4343
sg18
I566
sg19
F5.1004635982512045
sg20
F0.08887865530739121
sg21
g5
sg22
I700000
sg23
I126027
sg24
I144
sg25
I386
sg26
I126027
sg27
I231330
sg28
I969068
sg29
g5
ssS'HAUG DAVID L'
p108
(dp109
g3
I573
sg4
g5
sg6
I475
sg7
I00
sg8
g5
sg9
S'david.haug@enron.com'
p110
sg11
g5
sg12
F2.6766936096248664
sg13
F0.006980802792321117
sg14
g5
sg15
I471
sg16
g5
sg17
I19
sg18
g5
sg19
F6.345824261131794
sg20
F0.3684210526315789
sg21
g5
sg22
g5
sg23
I2217299
sg24
I4
sg25
I7
sg26
I2217299
sg27
g5
sg28
I475
sg29
g5
ssS'ECHOLS JOHN B'
p111
(dp112
g3
g5
sg4
g5
sg6
I21530
sg7
I00
sg8
g5
sg9
S'john.echols@enron.com'
p113
sg11
I2234774
sg12
F6.430127322619191
sg13
I0
sg14
g5
sg15
g5
sg16
g5
sg17
g5
sg18
I53775
sg19
F6.003865770673373
sg20
I0
sg21
g5
sg22
I200000
sg23
I1008941
sg24
g5
sg25
g5
sg26
I407503
sg27
I182245
sg28
I2692324
sg29
I601438
ssS'HICKERSON GARY J'
p114
(dp115
g3
I1320
sg4
g5
sg6
I98849
sg7
I00
sg8
g5
sg9
S'gary.hickerson@enron.com'
p116
sg11
I69223
sg12
F6.318438169739823
sg13
F0.030303030303030304
sg14
g5
sg15
I900
sg16
g5
sg17
I27
sg18
I1936
sg19
F5.644533119474612
sg20
F0.037037037037037035
sg21
g5
sg22
I1700000
sg23
I441096
sg24
I40
sg25
I1
sg26
I441096
sg27
I211788
sg28
I2081796
sg29
g5
ssS'LEWIS RICHARD'
p117
(dp118
g3
I952
sg4
g5
sg6
g5
sg7
I00
sg8
g5
sg9
S'richard.lewis@enron.com'
p119
sg11
g5
sg12
I0
sg13
F0.01050420168067227
sg14
g5
sg15
I739
sg16
g5
sg17
I26
sg18
g5
sg19
I0
sg20
F0.0
sg21
g5
sg22
g5
sg23
I850477
sg24
I10
sg25
I0
sg26
g5
sg27
g5
sg28
g5
sg29
I850477
ssS'HAYES ROBERT E'
p120
(dp121
g3
I504
sg4
I7961
sg6
g5
sg7
I00
sg8
g5
sg9
S'robert.hayes@enron.com'
p122
sg11
g5
sg12
F3.900967623919124
sg13
F0.031746031746031744
sg14
g5
sg15
I50
sg16
g5
sg17
I12
sg18
g5
sg19
F5.180177505520792
sg20
F0.0
sg21
g5
sg22
g5
sg23
I151418
sg24
I16
sg25
I0
sg26
I151418
sg27
g5
sg28
I7961
sg29
g5
ssS'MCCARTY DANNY J'
p123
(dp124
g3
I1433
sg4
g5
sg6
g5
sg7
I00
sg8
g5
sg9
S'danny.mccarty@enron.com'
p125
sg11
g5
sg12
I0
sg13
F0.017445917655268667
sg14
g5
sg15
I508
sg16
g5
sg17
I215
sg18
g5
sg19
I0
sg20
F0.009302325581395349
sg21
g5
sg22
g5
sg23
I758931
sg24
I25
sg25
I2
sg26
I94556
sg27
g5
sg28
g5
sg29
I664375
ssS'KOPPER MICHAEL J'
p126
(dp127
g3
g5
sg4
g5
sg6
I118134
sg7
I01
sg8
g5
sg9
S'michael.kopper@enron.com'
p128
sg11
I602671
sg12
F6.4236737299739755
sg13
I0
sg14
g5
sg15
g5
sg16
g5
sg17
g5
sg18
I907502
sg19
F5.993450339327744
sg20
I0
sg21
g5
sg22
I800000
sg23
I985032
sg24
g5
sg25
g5
sg26
I985032
sg27
I224305
sg28
I2652612
sg29
g5
ssS'LEFF DANIEL P'
p129
(dp130
g3
I2822
sg4
g5
sg6
g5
sg7
I00
sg8
g5
sg9
S'dan.leff@enron.com'
p131
sg11
I1387399
sg12
F6.425571388255324
sg13
F0.02374202693125443
sg14
g5
sg15
I2672
sg16
g5
sg17
I63
sg18
I3083
sg19
F5.556938999355794
sg20
F0.2222222222222222
sg21
g5
sg22
I1000000
sg23
I360528
sg24
I67
sg25
I14
sg26
I360528
sg27
I273746
sg28
I2664228
sg29
g5
ssS'LAVORATO JOHN J'
p132
(dp133
g3
I7259
sg4
g5
sg6
I49537
sg7
I00
sg8
g5
sg9
S'john.lavorato@enron.com'
p134
sg11
I2035380
sg12
F7.018107598320814
sg13
F0.07273729163796666
sg14
g5
sg15
I3962
sg16
g5
sg17
I2585
sg18
I1552
sg19
F6.713250564803638
sg20
F0.15899419729206962
sg21
g5
sg22
I8000000
sg23
I5167144
sg24
I528
sg25
I411
sg26
I1008149
sg27
I339288
sg28
I10425757
sg29
I4158995
ssS'BERBERIAN DAVID'
p135
(dp136
g3
g5
sg4
g5
sg6
I11892
sg7
I00
sg8
g5
sg9
S'david.berberian@enron.com'
p137
sg11
g5
sg12
F5.358836785154263
sg13
I0
sg14
g5
sg15
g5
sg16
g5
sg17
g5
sg18
g5
sg19
F6.39682957587827
sg20
I0
sg21
g5
sg22
g5
sg23
I2493616
sg24
g5
sg25
g5
sg26
I869220
sg27
I216582
sg28
I228474
sg29
I1624396
ssS'DETMERING TIMOTHY J'
p138
(dp139
g3
g5
sg4
I875307
sg6
I52255
sg7
I00
sg8
I-775241
sg9
S'timothy.detmering@enron.com'
p140
sg11
I415657
sg12
F6.080836729780693
sg13
I0
sg14
I-315068
sg15
g5
sg16
g5
sg17
g5
sg18
I1105
sg19
F6.30703903956338
sg20
I0
sg21
g5
sg22
I425000
sg23
I2027865
sg24
g5
sg25
g5
sg26
I315068
sg27
I210500
sg28
I1204583
sg29
I2027865
ssS'POWERS WILLIAM'
p141
(dp142
g3
I653
sg4
g5
sg6
g5
sg7
I00
sg8
I-17500
sg9
S'ken.powers@enron.com'
p143
sg11
g5
sg12
I0
sg13
F0.0
sg14
g5
sg15
I12
sg16
g5
sg17
I26
sg18
g5
sg19
I0
sg20
F0.0
sg21
I17500
sg22
g5
sg23
g5
sg24
I0
sg25
I0
sg26
g5
sg27
g5
sg28
g5
sg29
g5
ssS'GOLD JOSEPH'
p144
(dp145
g3
g5
sg4
g5
sg6
g5
sg7
I00
sg8
g5
sg9
S'joe.gold@enron.com'
p146
sg11
I304805
sg12
F6.331826582850434
sg13
I0
sg14
g5
sg15
g5
sg16
g5
sg17
g5
sg18
I819288
sg19
F5.943302058059546
sg20
I0
sg21
g5
sg22
I750000
sg23
I877611
sg24
g5
sg25
g5
sg26
I441096
sg27
I272880
sg28
I2146973
sg29
I436515
ssS'BANNANTINE JAMES M'
p147
(dp148
g3
I566
sg4
g5
sg6
I56301
sg7
I00
sg8
I-5104
sg9
S'james.bannantine@enron.com'
p149
sg11
g5
sg12
F5.961988865386387
sg13
F0.06890459363957598
sg14
I-560222
sg15
I465
sg16
g5
sg17
I29
sg18
I864523
sg19
F6.719620195610073
sg20
F0.0
sg21
g5
sg22
g5
sg23
I5243487
sg24
I39
sg25
I0
sg26
I1757552
sg27
I477
sg28
I916197
sg29
I4046157
ssS'DUNCAN JOHN H'
p150
(dp151
g3
g5
sg4
g5
sg6
g5
sg7
I00
sg8
I-25000
sg9
g5
sg11
g5
sg12
F4.889256869794191
sg13
I0
sg14
g5
sg15
g5
sg16
g5
sg17
g5
sg18
g5
sg19
F5.570250977193991
sg20
I0
sg21
I102492
sg22
g5
sg23
I371750
sg24
g5
sg25
g5
sg26
g5
sg27
g5
sg28
I77492
sg29
I371750
ssS'SHAPIRO RICHARD S'
p152
(dp153
g3
I15149
sg4
g5
sg6
I137767
sg7
I00
sg8
g5
sg9
S'richard.shapiro@enron.com'
p154
sg11
g5
sg12
F6.024300088257048
sg13
F0.0048848108786058485
sg14
g5
sg15
I4527
sg16
g5
sg17
I1215
sg18
I705
sg19
F5.9943175926840855
sg20
F0.053497942386831275
sg21
g5
sg22
I650000
sg23
I987001
sg24
I74
sg25
I65
sg26
I379164
sg27
I269076
sg28
I1057548
sg29
I607837
ssS'SHERRIFF JOHN R'
p155
(dp156
g3
I3187
sg4
g5
sg6
g5
sg7
I00
sg8
g5
sg9
S'john.sherriff@enron.com'
p157
sg11
I554422
sg12
F6.63702797118211
sg13
F0.008785691873235017
sg14
g5
sg15
I2103
sg16
g5
sg17
I92
sg18
I1852186
sg19
F6.495403064800664
sg20
F0.25
sg21
g5
sg22
I1500000
sg23
I3128982
sg24
I28
sg25
I23
sg26
I1293424
sg27
I428780
sg28
I4335388
sg29
I1835558
ssS'SHELBY REX'
p158
(dp159
g3
I225
sg4
g5
sg6
I22884
sg7
I01
sg8
I-4167
sg9
S'rex.shelby@enron.com'
p160
sg11
g5
sg12
F6.301872794391568
sg13
F0.057777777777777775
sg14
g5
sg15
I91
sg16
g5
sg17
I39
sg18
I1573324
sg19
F6.39682957587827
sg20
F0.358974358974359
sg21
g5
sg22
I200000
sg23
I2493616
sg24
I13
sg25
I14
sg26
I869220
sg27
I211844
sg28
I2003885
sg29
I1624396
ssS'LEMAISTRE CHARLES'
p161
(dp162
g3
g5
sg4
g5
sg6
g5
sg7
I00
sg8
I-25000
sg9
g5
sg11
g5
sg12
F4.9419683442829685
sg13
I0
sg14
g5
sg15
g5
sg16
g5
sg17
g5
sg18
g5
sg19
F5.6158217423245675
sg20
I0
sg21
I112492
sg22
g5
sg23
I412878
sg24
g5
sg25
g5
sg26
g5
sg27
g5
sg28
I87492
sg29
I412878
ssS'DEFFNER JOSEPH M'
p163
(dp164
g3
I714
sg4
g5
sg6
I41626
sg7
I00
sg8
g5
sg9
S'joseph.deffner@enron.com'
p165
sg11
I335349
sg12
F6.082300197059749
sg13
F0.16106442577030813
sg14
g5
sg15
I552
sg16
g5
sg17
I74
sg18
I25553
sg19
F5.20197307014955
sg20
F0.05405405405405406
sg21
g5
sg22
I600000
sg23
I159211
sg24
I115
sg25
I4
sg26
I141833
sg27
I206121
sg28
I1208649
sg29
I17378
ssS'KISHKILL JOSEPH G'
p166
(dp167
g3
g5
sg4
g5
sg6
I116335
sg7
I00
sg8
I-51042
sg9
S'joe.kishkill@enron.com'
p168
sg11
g5
sg12
F5.848125046129151
sg13
I0
sg14
g5
sg15
g5
sg16
g5
sg17
g5
sg18
I465357
sg19
F6.014665839294816
sg20
I0
sg21
g5
sg22
g5
sg23
I1034346
sg24
g5
sg25
g5
sg26
I1034346
sg27
I174246
sg28
I704896
sg29
g5
ssS'WHALLEY LAWRENCE G'
p169
(dp170
g3
I6019
sg4
g5
sg6
I57838
sg7
I00
sg8
g5
sg9
S'greg.whalley@enron.com'
p171
sg11
I808346
sg12
F6.670020666837455
sg13
F0.03090214321315833
sg14
g5
sg15
I3920
sg16
g5
sg17
I556
sg18
I301026
sg19
F6.783841930795789
sg20
F0.04316546762589928
sg21
g5
sg22
I3000000
sg23
I6079137
sg24
I186
sg25
I24
sg26
I2796177
sg27
I510364
sg28
I4677574
sg29
I3282960
ssS'MCCONNELL MICHAEL S'
p172
(dp173
g3
I3329
sg4
g5
sg6
I81364
sg7
I00
sg8
g5
sg9
S'mike.mcconnell@enron.com'
p174
sg11
I554422
sg12
F6.322501287769575
sg13
F0.02763592670471613
sg14
g5
sg15
I2189
sg16
g5
sg17
I2742
sg18
I540
sg19
F6.491540838378561
sg20
F0.07075127644055434
sg21
g5
sg22
I1100000
sg23
I3101279
sg24
I92
sg25
I194
sg26
I1478269
sg27
I365038
sg28
I2101364
sg29
I1623010
ssS'PIRO JIM'
p175
(dp176
g3
I58
sg4
g5
sg6
g5
sg7
I00
sg8
g5
sg9
S'jim.piro@enron.com'
p177
sg11
g5
sg12
I0
sg13
F0.0
sg14
g5
sg15
I3
sg16
g5
sg17
I16
sg18
g5
sg19
I0
sg20
F0.0625
sg21
g5
sg22
g5
sg23
I47304
sg24
I0
sg25
I1
sg26
I47304
sg27
g5
sg28
g5
sg29
g5
ssS'DELAINEY DAVID W'
p178
(dp179
g3
I3093
sg4
g5
sg6
I86174
sg7
I01
sg8
g5
sg9
S'david.delainey@enron.com'
p180
sg11
I1294981
sg12
F6.676508789430765
sg13
F0.02133850630455868
sg14
g5
sg15
I2097
sg16
g5
sg17
I3069
sg18
I1661
sg19
F6.558019511469772
sg20
F0.198435972629521
sg21
g5
sg22
I3000000
sg23
I3614261
sg24
I66
sg25
I609
sg26
I1323148
sg27
I365163
sg28
I4747979
sg29
I2291113
ssS'SULLIVAN-SHAKLOVITZ COLLEEN'
p181
(dp182
g3
g5
sg4
I181993
sg6
g5
sg7
I00
sg8
g5
sg9
g5
sg11
I554422
sg12
F5.999720224256191
sg13
I0
sg14
g5
sg15
g5
sg16
g5
sg17
g5
sg18
I162
sg19
F6.1342966655904325
sg20
I0
sg21
g5
sg22
I100000
sg23
I1362375
sg24
g5
sg25
g5
sg26
g5
sg27
I162779
sg28
I999356
sg29
I1362375
ssS'LINDHOLM TOD A'
p183
(dp184
g3
g5
sg4
I204075
sg6
I57727
sg7
I00
sg8
g5
sg9
S'tod.lindholm@enron.com'
p185
sg11
I175000
sg12
F5.942449072216093
sg13
I0
sg14
g5
sg15
g5
sg16
g5
sg17
g5
sg18
I2630
sg19
F6.486318242091842
sg20
I0
sg21
g5
sg22
I200000
sg23
I3064208
sg24
g5
sg25
g5
sg26
I514847
sg27
I236457
sg28
I875889
sg29
I2549361
ssS'LAY KENNETH L'
p186
(dp187
g3
I4273
sg4
I202911
sg6
I99832
sg7
I01
sg8
I-300000
sg9
S'kenneth.lay@enron.com'
p188
sg11
I3600000
sg12
F8.015191173676241
sg13
F0.028785396676807865
sg14
g5
sg15
I2411
sg16
I81525000
sg17
I36
sg18
I10359729
sg19
F7.691170623908485
sg20
F0.4444444444444444
sg21
g5
sg22
I7000000
sg23
I49110078
sg24
I123
sg25
I16
sg26
I14761694
sg27
I1072321
sg28
I103559793
sg29
I34348384
ssS'BUTTS ROBERT H'
p189
(dp190
g3
g5
sg4
g5
sg6
I9410
sg7
I00
sg8
I-75000
sg9
S'bob.butts@enron.com'
p191
sg11
I175000
sg12
F6.104344371589382
sg13
I0
sg14
g5
sg15
g5
sg16
g5
sg17
g5
sg18
I150656
sg19
F5.620780249111653
sg20
I0
sg21
g5
sg22
I750000
sg23
I417619
sg24
g5
sg25
g5
sg26
I417619
sg27
I261516
sg28
I1271582
sg29
g5
ssS'OLSON CINDY K'
p192
(dp193
g3
I1184
sg4
I77716
sg6
I63791
sg7
I00
sg8
g5
sg9
S'cindy.olson@enron.com'
p194
sg11
I100000
sg12
F6.121085899402358
sg13
F0.016891891891891893
sg14
g5
sg15
I856
sg16
g5
sg17
I52
sg18
I972
sg19
F6.416101548057078
sg20
F0.28846153846153844
sg21
g5
sg22
I750000
sg23
I2606763
sg24
I20
sg25
I15
sg26
I969729
sg27
I329078
sg28
I1321557
sg29
I1637034
ssS'MCDONALD REBECCA'
p195
(dp196
g3
I894
sg4
g5
sg6
g5
sg7
I00
sg8
g5
sg9
S'rebecca.mcdonald@enron.com'
p197
sg11
g5
sg12
I0
sg13
F0.06040268456375839
sg14
g5
sg15
I720
sg16
g5
sg17
I13
sg18
g5
sg19
I0
sg20
F0.07692307692307693
sg21
g5
sg22
g5
sg23
I1691366
sg24
I54
sg25
I1
sg26
I934065
sg27
g5
sg28
g5
sg29
I757301
ssS'CUMBERLAND MICHAEL S'
p198
(dp199
g3
g5
sg4
g5
sg6
I22344
sg7
I00
sg8
g5
sg9
g5
sg11
I275000
sg12
F5.907387710431125
sg13
I0
sg14
g5
sg15
g5
sg16
g5
sg17
g5
sg18
I713
sg19
F5.317938039636056
sg20
I0
sg21
g5
sg22
I325000
sg23
I207940
sg24
g5
sg25
g5
sg26
I207940
sg27
I184899
sg28
I807956
sg29
g5
ssS'GAHN ROBERT S'
p200
(dp201
g3
g5
sg4
I73122
sg6
I50080
sg7
I00
sg8
I-1042
sg9
g5
sg11
g5
sg12
F5.954524709147589
sg13
I0
sg14
g5
sg15
g5
sg16
g5
sg17
g5
sg18
I76547
sg19
F5.50325531329806
sg20
I0
sg21
g5
sg22
I509870
sg23
I318607
sg24
g5
sg25
g5
sg26
I235370
sg27
I192008
sg28
I900585
sg29
I83237
ssS'MCCLELLAN GEORGE'
p202
(dp203
g3
I1744
sg4
g5
sg6
I228763
sg7
I00
sg8
I-125000
sg9
S'george.mcclellan@enron.com'
p204
sg11
g5
sg12
F6.120166753817454
sg13
F0.02981651376146789
sg14
g5
sg15
I1469
sg16
g5
sg17
I49
sg18
I51587
sg19
F5.976744654469867
sg20
F0.0
sg21
g5
sg22
I900000
sg23
I947861
sg24
I52
sg25
I0
sg26
I441096
sg27
I263413
sg28
I1318763
sg29
I506765
ssS'HERMANN ROBERT J'
p205
(dp206
g3
g5
sg4
g5
sg6
I48357
sg7
I00
sg8
I-280000
sg9
S'robert.hermann@enron.com'
p207
sg11
I150000
sg12
F6.11309431238612
sg13
I0
sg14
g5
sg15
g5
sg16
g5
sg17
g5
sg18
I416441
sg19
F5.824862272667649
sg20
I0
sg21
g5
sg22
I700000
sg23
I668132
sg24
g5
sg25
g5
sg26
I480632
sg27
I262663
sg28
I1297461
sg29
I187500
ssS'HAEDICKE MARK E'
p208
(dp209
g3
I4009
sg4
I2157527
sg6
I76169
sg7
I00
sg8
I-934484
sg9
S'mark.haedicke@enron.com'
p210
sg11
I983346
sg12
F6.586482093653952
sg13
F0.04489897730107259
sg14
I-329825
sg15
I1847
sg16
g5
sg17
I1941
sg18
I52382
sg19
F5.904766381258822
sg20
F0.03142709943328181
sg21
g5
sg22
I1150000
sg23
I803094
sg24
I180
sg25
I61
sg26
I524169
sg27
I374125
sg28
I3859065
sg29
I608750
ssS'BOWEN JR RAYMOND M'
p211
(dp212
g3
I1858
sg4
g5
sg6
I65907
sg7
I01
sg8
I-833
sg9
S'raymond.bowen@enron.com'
p213
sg11
I974293
sg12
F6.426444404146757
sg13
F0.07534983853606028
sg14
g5
sg15
I1593
sg16
g5
sg17
I27
sg18
I1621
sg19
F5.40149531693335
sg20
F0.5555555555555556
sg21
g5
sg22
I1350000
sg23
I252055
sg24
I140
sg25
I15
sg26
I252055
sg27
I278601
sg28
I2669589
sg29
g5
ssS'FITZGERALD JAY L'
p214
(dp215
g3
I936
sg4
g5
sg6
I23870
sg7
I00
sg8
g5
sg9
S'jay.fitzgerald@enron.com'
p216
sg11
I556416
sg12
F6.150712547811371
sg13
F0.0010683760683760685
sg14
g5
sg15
I723
sg16
g5
sg17
I16
sg18
I285414
sg19
F6.20984623880748
sg20
F0.5
sg21
g5
sg22
I350000
sg23
I1621236
sg24
I1
sg25
I8
sg26
I956775
sg27
I199157
sg28
I1414857
sg29
I664461
ssS'MORAN MICHAEL P'
p217
(dp218
g3
I672
sg4
g5
sg6
g5
sg7
I00
sg8
g5
sg9
S'michael.moran@enron.com'
p219
sg11
g5
sg12
I0
sg13
F0.0
sg14
g5
sg15
I127
sg16
g5
sg17
I19
sg18
g5
sg19
I0
sg20
F0.0
sg21
g5
sg22
g5
sg23
I221141
sg24
I0
sg25
I0
sg26
I161602
sg27
g5
sg28
g5
sg29
I59539
ssS'REDMOND BRIAN L'
p220
(dp221
g3
I1671
sg4
g5
sg6
I14689
sg7
I00
sg8
g5
sg9
S'brian.redmond@enron.com'
p222
sg11
g5
sg12
F5.047387808212916
sg13
F0.12208258527827648
sg14
g5
sg15
I1063
sg16
g5
sg17
I221
sg18
g5
sg19
F6.897094836989278
sg20
F0.22171945701357465
sg21
g5
sg22
g5
sg23
I7890324
sg24
I204
sg25
I49
sg26
I381285
sg27
I96840
sg28
I111529
sg29
I7509039
ssS'BAZELIDES PHILIP J'
p223
(dp224
g3
g5
sg4
I684694
sg6
g5
sg7
I00
sg8
g5
sg9
g5
sg11
I93750
sg12
F5.934567124941068
sg13
I0
sg14
g5
sg15
g5
sg16
g5
sg17
g5
sg18
I874
sg19
F6.204022526897821
sg20
I0
sg21
g5
sg22
g5
sg23
I1599641
sg24
g5
sg25
g5
sg26
g5
sg27
I80818
sg28
I860136
sg29
I1599641
ssS'BELDEN TIMOTHY N'
p225
(dp226
g3
I7991
sg4
I2144013
sg6
I17355
sg7
I01
sg8
I-2334434
sg9
S'tim.belden@enron.com'
p227
sg11
g5
sg12
F6.740491379517573
sg13
F0.028532098610937303
sg14
g5
sg15
I5521
sg16
g5
sg17
I484
sg18
I210698
sg19
F6.045598726911714
sg20
F0.2231404958677686
sg21
g5
sg22
I5249999
sg23
I1110705
sg24
I228
sg25
I108
sg26
I157569
sg27
I213999
sg28
I5501630
sg29
I953136
ssS'DURAN WILLIAM D'
p228
(dp229
g3
I904
sg4
g5
sg6
I25785
sg7
I00
sg8
g5
sg9
S'w.duran@enron.com'
p230
sg11
I1105218
sg12
F6.3208237970310455
sg13
F0.1172566371681416
sg14
g5
sg15
I599
sg16
g5
sg17
I12
sg18
I1568
sg19
F6.215084761689746
sg20
F0.25
sg21
g5
sg22
I750000
sg23
I1640910
sg24
I106
sg25
I3
sg26
I189041
sg27
I210692
sg28
I2093263
sg29
I1451869
ssS'THORN TERENCE H'
p231
(dp232
g3
I266
sg4
I16586
sg6
I46145
sg7
I00
sg8
g5
sg9
S'terence.thorn@enron.com'
p233
sg11
I200000
sg12
F5.95973427873217
sg13
F0.0
sg14
g5
sg15
I73
sg16
g5
sg17
I41
sg18
I426629
sg19
F6.682848406714629
sg20
F0.0
sg21
g5
sg22
g5
sg23
I4817796
sg24
I0
sg25
I0
sg26
I365320
sg27
I222093
sg28
I911453
sg29
I4452476
ssS'FASTOW ANDREW S'
p234
(dp235
g3
g5
sg4
g5
sg6
I55921
sg7
I01
sg8
I-1386055
sg9
S'andrew.fastow@enron.com'
p236
sg11
I1736055
sg12
F6.38454748588405
sg13
I0
sg14
g5
sg15
g5
sg16
g5
sg17
g5
sg18
I277464
sg19
F6.253922164897446
sg20
I0
sg21
g5
sg22
I1300000
sg23
I1794412
sg24
g5
sg25
g5
sg26
I1794412
sg27
I440698
sg28
I2424083
sg29
g5
ssS'FOY JOE'
p237
(dp238
g3
I57
sg4
I181755
sg6
g5
sg7
I00
sg8
g5
sg9
S'tracy.foy@enron.com'
p239
sg11
g5
sg12
F5.259486366945331
sg13
F0.0
sg14
g5
sg15
I2
sg16
g5
sg17
I13
sg18
g5
sg19
F5.535843288150006
sg20
F0.0
sg21
g5
sg22
g5
sg23
I343434
sg24
I0
sg25
I0
sg26
g5
sg27
g5
sg28
I181755
sg29
I343434
ssS'CALGER CHRISTOPHER F'
p240
(dp241
g3
I2598
sg4
g5
sg6
I35818
sg7
I01
sg8
I-262500
sg9
S'christopher.calger@enron.com'
p242
sg11
I375304
sg12
F6.21465764409883
sg13
F0.07659738260200154
sg14
g5
sg15
I2188
sg16
g5
sg17
I144
sg18
I486
sg19
F5.1004635982512045
sg20
F0.1736111111111111
sg21
g5
sg22
I1250000
sg23
I126027
sg24
I199
sg25
I25
sg26
I126027
sg27
I240189
sg28
I1639297
sg29
g5
ssS'RICE KENNETH D'
p243
(dp244
g3
I905
sg4
g5
sg6
I46950
sg7
I01
sg8
I-3504386
sg9
S'ken.rice@enron.com'
p245
sg11
I1617011
sg12
F5.703334375443769
sg13
F0.04640883977900553
sg14
g5
sg15
I864
sg16
g5
sg17
I18
sg18
I174839
sg19
F7.353002829704288
sg20
F0.2222222222222222
sg21
g5
sg22
I1750000
sg23
I22542539
sg24
I42
sg25
I4
sg26
I2748364
sg27
I420636
sg28
I505050
sg29
I19794175
ssS'KAMINSKI WINCENTY J'
p246
(dp247
g3
I4607
sg4
g5
sg6
I83585
sg7
I00
sg8
g5
sg9
S'vince.kaminski@enron.com'
p248
sg11
I323466
sg12
F6.036158021442583
sg13
F0.008899500759713479
sg14
g5
sg15
I583
sg16
g5
sg17
I14368
sg18
I4669
sg19
F5.989466281387238
sg20
F0.011901447661469933
sg21
g5
sg22
I400000
sg23
I976037
sg24
I41
sg25
I171
sg26
I126027
sg27
I275101
sg28
I1086821
sg29
I850010
ssS'COX DAVID'
p249
(dp250
g3
I102
sg4
g5
sg6
I27861
sg7
I00
sg8
I-41250
sg9
S'chip.cox@enron.com'
p251
sg11
g5
sg12
F6.04194231195729
sg13
F0.0
sg14
g5
sg15
I71
sg16
g5
sg17
I33
sg18
I494
sg19
F5.695160214654749
sg20
F0.12121212121212122
sg21
g5
sg22
I800000
sg23
I495633
sg24
I0
sg25
I4
sg26
I378082
sg27
I314288
sg28
I1101393
sg29
I117551
ssS'OVERDYKE JR JERE C'
p252
(dp253
g3
g5
sg4
g5
sg6
I18834
sg7
I00
sg8
g5
sg9
S'jere.overdyke@enron.com'
p254
sg11
I135836
sg12
F5.397569832055815
sg13
I0
sg14
g5
sg15
g5
sg16
g5
sg17
g5
sg18
I176
sg19
F6.86377441053905
sg20
I0
sg21
g5
sg22
g5
sg23
I7307594
sg24
g5
sg25
g5
sg26
I2041016
sg27
I94941
sg28
I249787
sg29
I5266578
ssS'STABLER FRANK'
p255
(dp256
g3
g5
sg4
g5
sg6
I16514
sg7
I00
sg8
g5
sg9
S'frank.stabler@enron.com'
p257
sg11
g5
sg12
F6.046138763992402
sg13
I0
sg14
g5
sg15
g5
sg16
g5
sg17
g5
sg18
I356071
sg19
F5.709044272789669
sg20
I0
sg21
g5
sg22
I500000
sg23
I511734
sg24
g5
sg25
g5
sg26
I511734
sg27
I239502
sg28
I1112087
sg29
g5
ssS'SKILLING JEFFREY K'
p258
(dp259
g3
I3627
sg4
g5
sg6
I29336
sg7
I01
sg8
g5
sg9
S'jeff.skilling@enron.com'
p260
sg11
I1920000
sg12
F6.938655596064717
sg13
F0.0242624758753791
sg14
g5
sg15
I2042
sg16
g5
sg17
I108
sg18
I22122
sg19
F7.416535198959328
sg20
F0.2777777777777778
sg21
g5
sg22
I5600000
sg23
I26093672
sg24
I88
sg25
I30
sg26
I6843672
sg27
I1111258
sg28
I8682716
sg29
I19250000
ssS'SHERRICK JEFFREY B'
p261
(dp262
g3
I613
sg4
g5
sg6
g5
sg7
I00
sg8
g5
sg9
S'jeffrey.sherrick@enron.com'
p263
sg11
g5
sg12
I0
sg13
F0.0636215334420881
sg14
g5
sg15
I583
sg16
g5
sg17
I25
sg18
g5
sg19
I0
sg20
F0.72
sg21
g5
sg22
g5
sg23
I1832468
sg24
I39
sg25
I18
sg26
I405999
sg27
g5
sg28
g5
sg29
I1426469
ssS'PRENTICE JAMES'
p264
(dp265
g3
g5
sg4
I564348
sg6
g5
sg7
I00
sg8
g5
sg9
S'james.prentice@enron.com'
p266
sg11
g5
sg12
F5.751546990281708
sg13
I0
sg14
g5
sg15
g5
sg16
g5
sg17
g5
sg18
g5
sg19
F6.039429983524987
sg20
I0
sg21
g5
sg22
g5
sg23
I1095040
sg24
g5
sg25
g5
sg26
I208809
sg27
g5
sg28
I564348
sg29
I886231
ssS'GRAY RODNEY'
p267
(dp268
g3
g5
sg4
I93585
sg6
g5
sg7
I00
sg8
g5
sg9
g5
sg11
I365625
sg12
I0
sg13
I0
sg14
g5
sg15
g5
sg16
g5
sg17
g5
sg18
I680833
sg19
I0
sg20
I0
sg21
g5
sg22
g5
sg23
g5
sg24
g5
sg25
g5
sg26
g5
sg27
I6615
sg28
I1146658
sg29
g5
ssS'PICKERING MARK R'
p269
(dp270
g3
I898
sg4
g5
sg6
I31653
sg7
I00
sg8
g5
sg9
S'mark.pickering@enron.com'
p271
sg11
g5
sg12
F6.1419793836854355
sg13
F0.0077951002227171495
sg14
g5
sg15
I728
sg16
I400000
sg17
I67
sg18
g5
sg19
F4.459362327372961
sg20
F0.0
sg21
g5
sg22
I300000
sg23
I28798
sg24
I7
sg25
I0
sg26
g5
sg27
I655037
sg28
I1386690
sg29
I28798
ssS'NOLES JAMES L'
p272
(dp273
g3
g5
sg4
I774401
sg6
g5
sg7
I00
sg8
g5
sg9
g5
sg11
g5
sg12
F5.88896590511413
sg13
I0
sg14
I-94556
sg15
g5
sg16
g5
sg17
g5
sg18
g5
sg19
F5.566679027103501
sg20
I0
sg21
g5
sg22
g5
sg23
I368705
sg24
g5
sg25
g5
sg26
I463261
sg27
g5
sg28
I774401
sg29
g5
ssS'KEAN STEVEN J'
p274
(dp275
g3
I12754
sg4
g5
sg6
I41953
sg7
I00
sg8
g5
sg9
S'steven.kean@enron.com'
p276
sg11
I300000
sg12
F6.242422651896093
sg13
F0.010976948408342482
sg14
g5
sg15
I3639
sg16
g5
sg17
I6759
sg18
I1231
sg19
F6.789132226726676
sg20
F0.05725699067909454
sg21
g5
sg22
I1000000
sg23
I6153642
sg24
I140
sg25
I387
sg26
I4131594
sg27
I404338
sg28
I1747522
sg29
I2022048
ssS'FOWLER PEGGY'
p277
(dp278
g3
I517
sg4
g5
sg6
g5
sg7
I00
sg8
g5
sg9
S'kulvinder.fowler@enron.com'
p279
sg11
g5
sg12
I0
sg13
F0.0
sg14
g5
sg15
I10
sg16
g5
sg17
I36
sg18
g5
sg19
I0
sg20
F0.0
sg21
g5
sg22
g5
sg23
I1884748
sg24
I0
sg25
I0
sg26
I560170
sg27
g5
sg28
g5
sg29
I1324578
ssS'WASAFF GEORGE'
p280
(dp281
g3
I400
sg4
I831299
sg6
g5
sg7
I00
sg8
I-583325
sg9
S'george.wasaff@enron.com'
p282
sg11
I200000
sg12
F6.014686412609327
sg13
F0.055
sg14
g5
sg15
I337
sg16
g5
sg17
I30
sg18
I1425
sg19
F6.313113297331755
sg20
F0.23333333333333334
sg21
g5
sg22
I325000
sg23
I2056427
sg24
I22
sg25
I7
sg26
I388167
sg27
I259996
sg28
I1034395
sg29
I1668260
ssS'WHITE JR THOMAS E'
p283
(dp284
g3
g5
sg4
g5
sg6
I81353
sg7
I00
sg8
g5
sg9
S'thomas.white@enron.com'
p285
sg11
g5
sg12
F6.286537078459592
sg13
I0
sg14
g5
sg15
g5
sg16
g5
sg17
g5
sg18
I1085463
sg19
F7.180244128293586
sg20
I0
sg21
g5
sg22
I450000
sg23
I15144123
sg24
g5
sg25
g5
sg26
I13847074
sg27
I317543
sg28
I1934359
sg29
I1297049
ssS'ALLEN PHILLIP K'
p286
(dp287
g3
I2902
sg4
I2869717
sg6
I13868
sg7
I00
sg8
I-3081055
sg9
S'phillip.allen@enron.com'
p288
sg11
I304805
sg12
F6.6517084113941
sg13
F0.016195727084769126
sg14
I-126027
sg15
I1407
sg16
g5
sg17
I2195
sg18
I152
sg19
F6.237930861732111
sg20
F0.029612756264236904
sg21
g5
sg22
I4175000
sg23
I1729541
sg24
I47
sg25
I65
sg26
I126027
sg27
I201955
sg28
I4484442
sg29
I1729541
ssS'SHARP VICTORIA T'
p289
(dp290
g3
I3136
sg4
I187469
sg6
I116337
sg7
I00
sg8
g5
sg9
S'vicki.sharp@enron.com'
p291
sg11
I422158
sg12
F6.197697005355178
sg13
F0.007653061224489796
sg14
g5
sg15
I2477
sg16
g5
sg17
I136
sg18
I2401
sg19
F5.69384649532194
sg20
F0.04411764705882353
sg21
g5
sg22
I600000
sg23
I494136
sg24
I24
sg25
I6
sg26
I213063
sg27
I248146
sg28
I1576511
sg29
I281073
ssS'JAEDICKE ROBERT'
p292
(dp293
g3
g5
sg4
g5
sg6
g5
sg7
I00
sg8
I-25000
sg9
g5
sg11
g5
sg12
F4.922984815708882
sg13
I0
sg14
I-44093
sg15
g5
sg16
g5
sg17
g5
sg18
g5
sg19
F5.635232346239496
sg20
I0
sg21
I108750
sg22
g5
sg23
I431750
sg24
g5
sg25
g5
sg26
I44093
sg27
g5
sg28
I83750
sg29
I431750
ssS'BROWN MICHAEL'
p294
(dp295
g3
I1486
sg4
g5
sg6
I49288
sg7
I00
sg8
g5
sg9
S'michael.brown@enron.com'
p296
sg11
g5
sg12
I0
sg13
F0.008748317631224764
sg14
g5
sg15
I761
sg16
g5
sg17
I41
sg18
g5
sg19
I0
sg20
F0.024390243902439025
sg21
g5
sg22
g5
sg23
g5
sg24
I13
sg25
I1
sg26
g5
sg27
g5
sg28
I49288
sg29
g5
ssS'BADUM JAMES P'
p297
(dp298
g3
g5
sg4
I178980
sg6
I3486
sg7
I00
sg8
g5
sg9
g5
sg11
g5
sg12
F5.261181951597865
sg13
I0
sg14
g5
sg15
g5
sg16
g5
sg17
g5
sg18
g5
sg19
F5.411311550576638
sg20
I0
sg21
g5
sg22
g5
sg23
I257817
sg24
g5
sg25
g5
sg26
g5
sg27
g5
sg28
I182466
sg29
I257817
ssS'HUGHES JAMES A'
p299
(dp300
g3
I719
sg4
g5
sg6
g5
sg7
I00
sg8
g5
sg9
S'james.hughes@enron.com'
p301
sg11
g5
sg12
I0
sg13
F0.048678720445062586
sg14
g5
sg15
I589
sg16
g5
sg17
I34
sg18
g5
sg19
I0
sg20
F0.14705882352941177
sg21
g5
sg22
g5
sg23
I1118394
sg24
I35
sg25
I5
sg26
I363428
sg27
g5
sg28
g5
sg29
I754966
ssS'REYNOLDS LAWRENCE'
p302
(dp303
g3
g5
sg4
I51365
sg6
I8409
sg7
I00
sg8
I-200000
sg9
g5
sg11
I156250
sg12
F5.596019484843068
sg13
I0
sg14
I-140264
sg15
g5
sg16
g5
sg17
g5
sg18
I202052
sg19
F6.625507016581867
sg20
I0
sg21
g5
sg22
I100000
sg23
I4221891
sg24
g5
sg25
g5
sg26
I201483
sg27
I76399
sg28
I394475
sg29
I4160672
ssS'DIMICHELE RICHARD G'
p304
(dp305
g3
g5
sg4
g5
sg6
I35812
sg7
I00
sg8
g5
sg9
S'richard.dimichele@enron.com'
p306
sg11
I694862
sg12
F6.374409390777228
sg13
I0
sg14
g5
sg15
g5
sg16
g5
sg17
g5
sg18
I374689
sg19
F6.920007533793074
sg20
I0
sg21
g5
sg22
I1000000
sg23
I8317782
sg24
g5
sg25
g5
sg26
I126027
sg27
I262788
sg28
I2368151
sg29
I8191755
ssS'BHATNAGAR SANJAY'
p307
(dp308
g3
I523
sg4
g5
sg6
g5
sg7
I00
sg8
g5
sg9
S'sanjay.bhatnagar@enron.com'
p309
sg11
g5
sg12
I0
sg13
F0.0
sg14
I15456290
sg15
I463
sg16
g5
sg17
I29
sg18
I137864
sg19
I0
sg20
F0.034482758620689655
sg21
I137864
sg22
g5
sS'total_stock_value'
p310
S'NaN'
p311
sg24
I0
sg25
I1
sg26
I-2604490
sg27
g5
sg28
I15456290
sg29
I2604490
ssS'CARTER REBECCA C'
p312
(dp313
g3
I312
sg4
g5
sg6
g5
sg7
I00
sg8
I-159792
sg9
S'rebecca.carter@enron.com'
p314
sg11
I75000
sg12
I0
sg13
F0.09294871794871795
sg14
I-307301
sg15
I196
sg16
g5
sg17
I15
sg18
I540
sg19
I0
sg20
F0.4666666666666667
sg21
g5
sg22
I300000
sg23
g5
sg24
I29
sg25
I7
sg26
I307301
sg27
I261809
sg28
I477557
sg29
g5
ssS'BUCHANAN HAROLD G'
p315
(dp316
g3
I1088
sg4
g5
sg6
I600
sg7
I00
sg8
g5
sg9
S'john.buchanan@enron.com'
p317
sg11
I304805
sg12
F6.023103003686089
sg13
F0.0
sg14
g5
sg15
I23
sg16
g5
sg17
I125
sg18
I1215
sg19
F6.006254191800176
sg20
F0.0
sg21
g5
sg22
I500000
sg23
I1014505
sg24
I0
sg25
I0
sg26
I189041
sg27
I248017
sg28
I1054637
sg29
I825464
ssS'MURRAY JULIA H'
p318
(dp319
g3
I2192
sg4
g5
sg6
I57580
sg7
I00
sg8
g5
sg9
S'julia.murray@enron.com'
p320
sg11
I125000
sg12
F5.909659776859858
sg13
F0.005018248175182482
sg14
g5
sg15
I395
sg16
g5
sg17
I45
sg18
I330
sg19
F5.776309561440108
sg20
F0.044444444444444446
sg21
g5
sg22
I400000
sg23
I597461
sg24
I11
sg25
I2
sg26
I196983
sg27
I229284
sg28
I812194
sg29
I400478
ssS'GARLAND C KEVIN'
p321
(dp322
g3
I209
sg4
g5
sg6
I48405
sg7
I00
sg8
g5
sg9
S'kevin.garland@enron.com'
p323
sg11
I375304
sg12
F6.194921804731829
sg13
F0.04784688995215311
sg14
g5
sg15
I178
sg16
g5
sg17
I44
sg18
I60814
sg19
F5.952382162991547
sg20
F0.6136363636363636
sg21
g5
sg22
I850000
sg23
I896153
sg24
I10
sg25
I27
sg26
I259907
sg27
I231946
sg28
I1566469
sg29
I636246
ssS'DODSON KEITH'
p324
(dp325
g3
I176
sg4
g5
sg6
I28164
sg7
I00
sg8
g5
sg9
S'keith.dodson@enron.com'
p326
sg11
g5
sg12
I0
sg13
F0.056818181818181816
sg14
g5
sg15
I114
sg16
g5
sg17
I14
sg18
I774
sg19
I0
sg20
F0.21428571428571427
sg21
g5
sg22
I70000
sg23
g5
sg24
I10
sg25
I3
sg26
g5
sg27
I221003
sg28
I319941
sg29
g5
ssS'YEAGER F SCOTT'
p327
(dp328
g3
g5
sg4
g5
sg6
I53947
sg7
I01
sg8
g5
sg9
S'scott.yeager@enron.com'
p329
sg11
g5
sg12
F5.556664262122569
sg13
I0
sg14
g5
sg15
g5
sg16
g5
sg17
g5
sg18
I147950
sg19
F7.07499034295653
sg20
I0
sg21
g5
sg22
g5
sg23
I11884758
sg24
g5
sg25
g5
sg26
I3576206
sg27
I158403
sg28
I360300
sg29
I8308552
ssS'HIRKO JOSEPH'
p330
(dp331
g3
g5
sg4
I10259
sg6
I77978
sg7
I01
sg8
g5
sg9
S'joe.hirko@enron.com'
p332
sg11
g5
sg12
F4.959485005094003
sg13
I0
sg14
g5
sg15
g5
sg16
g5
sg17
g5
sg18
I2856
sg19
F7.488071939132751
sg20
I0
sg21
g5
sg22
g5
sg23
I30766064
sg24
g5
sg25
g5
sg26
g5
sg27
g5
sg28
I91093
sg29
I30766064
ssS'DIETRICH JANET R'
p333
(dp334
g3
I2572
sg4
g5
sg6
I3475
sg7
I00
sg8
g5
sg9
S'janet.dietrich@enron.com'
p335
sg11
I556416
sg12
F6.14936200591083
sg13
F0.11858475894245724
sg14
g5
sg15
I1902
sg16
g5
sg17
I63
sg18
I473
sg19
F6.270699094985817
sg20
F0.2222222222222222
sg21
g5
sg22
I600000
sg23
I1865087
sg24
I305
sg25
I14
sg26
I315068
sg27
I250100
sg28
I1410464
sg29
I1550019
ssS'DERRICK JR. JAMES V'
p336
(dp337
g3
I2181
sg4
g5
sg6
I51124
sg7
I00
sg8
I-1284000
sg9
S'james.derrick@enron.com'
p338
sg11
I484000
sg12
F5.741136622921788
sg13
F0.029344337459880788
sg14
I-1787380
sg15
I1401
sg16
g5
sg17
I909
sg18
I7482
sg19
F6.9460547823273755
sg20
F0.022002200220022004
sg21
g5
sg22
I800000
sg23
I8831913
sg24
I64
sg25
I20
sg26
I1787380
sg27
I492375
sg28
I550981
sg29
I8831913
ssS'FREVERT MARK A'
p339
(dp340
g3
I3275
sg4
I6426990
sg6
I86987
sg7
I00
sg8
I-3367011
sg9
S'mark.frevert@enron.com'
p341
sg11
I1617011
sg12
F7.236852791262683
sg13
F0.07389312977099237
sg14
g5
sg15
I2979
sg16
I2000000
sg17
I21
sg18
I7427621
sg19
F7.165012274300339
sg20
F0.2857142857142857
sg21
g5
sg22
I2000000
sg23
I14622185
sg24
I242
sg25
I6
sg26
I4188667
sg27
I1060932
sg28
I17252530
sg29
I10433518
ssS'PAI LOU L'
p342
(dp343
g3
g5
sg4
g5
sg6
I32047
sg7
I00
sg8
g5
sg9
S'lou.pai@enron.com'
p344
sg11
g5
sg12
F6.494625242183409
sg13
I0
sg14
g5
sg15
g5
sg16
g5
sg17
g5
sg18
I1829457
sg19
F7.376904014550549
sg20
I0
sg21
g5
sg22
I1000000
sg23
I23817930
sg24
g5
sg25
g5
sg26
I8453763
sg27
I261879
sg28
I3123383
sg29
I15364167
ssS'BAY FRANKLIN R'
p345
(dp346
g3
g5
sg4
I260455
sg6
I129142
sg7
I00
sg8
I-201641
sg9
S'frank.bay@enron.com'
p347
sg11
g5
sg12
F5.917870856392366
sg13
I0
sg14
I-82782
sg15
g5
sg16
g5
sg17
g5
sg18
I69
sg19
F4.799437048616716
sg20
I0
sg21
g5
sg22
I400000
sg23
I63014
sg24
g5
sg25
g5
sg26
I145796
sg27
I239671
sg28
I827696
sg29
g5
ssS'HAYSLETT RODERICK J'
p348
(dp349
g3
I2649
sg4
g5
sg6
g5
sg7
I00
sg8
g5
sg9
S'rod.hayslett@enron.com'
p350
sg11
g5
sg12
I0
sg13
F0.01321253303133258
sg14
g5
sg15
I571
sg16
g5
sg17
I1061
sg18
g5
sg19
I0
sg20
F0.03581526861451461
sg21
g5
sg22
g5
sg23
I346663
sg24
I35
sg25
I38
sg26
I346663
sg27
g5
sg28
g5
sg29
g5
ssS'FALLON JAMES B'
p351
(dp352
g3
I1755
sg4
g5
sg6
I95924
sg7
I00
sg8
g5
sg9
S'jim.fallon@enron.com'
p353
sg11
I374347
sg12
F6.565415669551829
sg13
F0.023931623931623933
sg14
g5
sg15
I1604
sg16
g5
sg17
I75
sg18
I401481
sg19
F6.36780284654828
sg20
F0.49333333333333335
sg21
g5
sg22
I2500000
sg23
I2332399
sg24
I42
sg25
I37
sg26
I1392142
sg27
I304588
sg28
I3676340
sg29
I940257
ssS'KOENIG MARK E'
p354
(dp355
g3
I2374
sg4
g5
sg6
I127017
sg7
I01
sg8
g5
sg9
S'mark.koenig@enron.com'
p356
sg11
I300000
sg12
F6.200692121291397
sg13
F0.02232518955349621
sg14
g5
sg15
I2271
sg16
g5
sg17
I61
sg18
I150458
sg19
F6.283313669252712
sg20
F0.2459016393442623
sg21
g5
sg22
I700000
sg23
I1920055
sg24
I53
sg25
I15
sg26
I1248318
sg27
I309946
sg28
I1587421
sg29
I671737
ssS'IZZO LAWRENCE L'
p357
(dp358
g3
I496
sg4
g5
sg6
I28093
sg7
I00
sg8
g5
sg9
S'larry.izzo@enron.com'
p359
sg11
I312500
sg12
F6.296576567598361
sg13
F0.056451612903225805
sg14
g5
sg15
I437
sg16
g5
sg17
I19
sg18
I1553729
sg19
F6.764921492226423
sg20
F0.2631578947368421
sg21
g5
sg22
g5
sg23
I5819980
sg24
I28
sg25
I5
sg26
I3654808
sg27
I85274
sg28
I1979596
sg29
I2165172
ssS'TILNEY ELIZABETH A'
p360
(dp361
g3
I460
sg4
g5
sg6
g5
sg7
I00
sg8
I-575000
sg9
S'elizabeth.tilney@enron.com'
p362
sg11
I275000
sg12
F5.601400448897192
sg13
F0.021739130434782608
sg14
g5
sg15
I379
sg16
g5
sg17
I19
sg18
I152055
sg19
F6.067458459249236
sg20
F0.5789473684210527
sg21
g5
sg22
I300000
sg23
I1168042
sg24
I10
sg25
I11
sg26
I576792
sg27
I247338
sg28
I399393
sg29
I591250
ssS'MARTIN AMANDA K'
p363
(dp364
g3
I1522
sg4
I85430
sg6
I8211
sg7
I00
sg8
g5
sg9
S'a..martin@enron.com'
p365
sg11
I5145434
sg12
F6.924641873955178
sg13
F0.005256241787122208
sg14
g5
sg15
I477
sg16
g5
sg17
I230
sg18
I2818454
sg19
F6.31603454076601
sg20
F0.0
sg21
g5
sg22
g5
sg23
I2070306
sg24
I8
sg25
I0
sg26
g5
sg27
I349487
sg28
I8407016
sg29
I2070306
ssS'BUY RICHARD B'
p366
(dp367
g3
I3523
sg4
I649584
sg6
g5
sg7
I00
sg8
I-694862
sg9
S'rick.buy@enron.com'
p368
sg11
I769862
sg12
F6.372120350656165
sg13
F0.04428044280442804
sg14
g5
sg15
I2333
sg16
g5
sg17
I1053
sg18
I400572
sg19
F6.5371224065678595
sg20
F0.06742640075973409
sg21
g5
sg22
I900000
sg23
I3444470
sg24
I156
sg25
I71
sg26
I901657
sg27
I330546
sg28
I2355702
sg29
I2542813
ssS'CAUSEY RICHARD A'
p369
(dp370
g3
I1892
sg4
g5
sg6
I30674
sg7
I01
sg8
I-235000
sg9
S'richard.causey@enron.com'
p371
sg11
I350000
sg12
F6.271553064851605
sg13
F0.0306553911205074
sg14
g5
sg15
I1585
sg16
g5
sg17
I49
sg18
I307895
sg19
F6.398298240692292
sg20
F0.24489795918367346
sg21
g5
sg22
I1000000
sg23
I2502063
sg24
I58
sg25
I12
sg26
I2502063
sg27
I415189
sg28
I1868758
sg29
g5
ssS'TAYLOR MITCHELL S'
p372
(dp373
g3
I533
sg4
I227449
sg6
g5
sg7
I00
sg8
g5
sg9
S'mitchell.taylor@enron.com'
p374
sg11
g5
sg12
F6.038486237148339
sg13
F0.0
sg14
g5
sg15
I300
sg16
g5
sg17
I29
sg18
g5
sg19
F6.573457388391036
sg20
F0.0
sg21
g5
sg22
I600000
sg23
I3745048
sg24
I0
sg25
I0
sg26
I563798
sg27
I265214
sg28
I1092663
sg29
I3181250
ssS'DONAHUE JR JEFFREY M'
p375
(dp376
g3
I865
sg4
g5
sg6
I96268
sg7
I00
sg8
I-300000
sg9
S'jeff.donahue@enron.com'
p377
sg11
g5
sg12
F5.942385105076253
sg13
F0.21734104046242775
sg14
g5
sg15
I772
sg16
g5
sg17
I22
sg18
I891
sg19
F6.033820872896225
sg20
F0.5
sg21
g5
sg22
I800000
sg23
I1080988
sg24
I188
sg25
I11
sg26
I315068
sg27
I278601
sg28
I875760
sg29
I765920
ssS'GLISAN JR BEN F'
p378
(dp379
g3
I873
sg4
g5
sg6
I125978
sg7
I01
sg8
g5
sg9
S'ben.glisan@enron.com'
p380
sg11
I71023
sg12
F6.1045840656094565
sg13
F0.05956471935853379
sg14
g5
sg15
I874
sg16
g5
sg17
I16
sg18
I200308
sg19
F5.891284277733907
sg20
F0.375
sg21
g5
sg22
I600000
sg23
I778546
sg24
I52
sg25
I6
sg26
I393818
sg27
I274975
sg28
I1272284
sg29
I384728
ss.