(lp0
S'poi'
p1
aS'salary'
p2
aS'to_messages'
p3
aS'deferral_payments'
p4
aS'total_payments'
p5
aS'loan_advances'
p6
aS'bonus'
p7
aS'restricted_stock_deferred'
p8
aS'total_stock_value'
p9
aS'shared_receipt_with_poi'
p10
aS'long_term_incentive'
p11
aS'exercised_stock_options'
p12
aS'from_messages'
p13
aS'other'
p14
aS'from_this_person_to_poi'
p15
aS'director_fees'
p16
aS'deferred_income'
p17
aS'expenses'
p18
aS'restricted_stock'
p19
aS'from_poi_to_this_person'
p20
aS'log_total_payments'
p21
aS'log_total_stock_value'
p22
aS'proportion_email_from_poi'
p23
aS'proportion_email_to_poi'
p24
a.